; Function Attrs: mustprogress nofree norecurse nosync nounwind willreturn memory(write, argmem: readwrite, inaccessiblemem: none) uwtable
define void @_ZN11llama_model10load_statsER18llama_model_loader(ptr noundef nonnull readonly align 8 captures(none) dereferenceable(6784) %0, ptr noundef nonnull readonly align 8 captures(none) dereferenceable(320) %1) local_unnamed_addr #9 align 2 {
  %3 = getelementptr inbounds nuw i8, ptr %1, i64 16
  %4 = load i64, ptr %3, align 8, !tbaa !120
  %5 = getelementptr inbounds nuw i8, ptr %0, i64 6776
  %6 = load ptr, ptr %5, align 8, !tbaa !110
  store i64 %4, ptr %6, align 8, !tbaa !159
  %7 = getelementptr inbounds nuw i8, ptr %1, i64 24
  %8 = load i64, ptr %7, align 8, !tbaa !189
  %9 = getelementptr inbounds nuw i8, ptr %6, i64 8
  store i64 %8, ptr %9, align 8, !tbaa !190
  ret void
}